target datalayout = "e-m:e-p270:32:32-p271:32:32-p272:64:64-i64:64-i128:128-f80:128-n8:16:32:64-S128"
target triple = "x86_64-pc-linux-gnu"

%struct.ps_prochandle = type { ptr, i32, i32, ptr, ptr, i32, ptr, ptr }
%struct.lib_info = type { [4352 x i8], i64, i64, i64, i64, %struct.eh_frame_info, ptr, i32, ptr }
%struct.eh_frame_info = type { i64, i64, ptr, i32 }

; Function Attrs: nounwind uwtable
define hidden ptr @get_lib_name(ptr noundef %0, i32 noundef %1) #0 {
  %3 = alloca ptr, align 8
  %4 = alloca ptr, align 8
  %5 = alloca i32, align 4
  %6 = alloca i32, align 4
  %7 = alloca ptr, align 8
  store ptr %0, ptr %4, align 8
  store i32 %1, ptr %5, align 4
  store i32 0, ptr %6, align 4
  %8 = load ptr, ptr %4, align 8
  %9 = getelementptr inbounds %struct.ps_prochandle, ptr %8, i32 0, i32 3
  %10 = load ptr, ptr %9, align 8
  store ptr %10, ptr %7, align 8
  br label %11

11:                                               ; preds = %22, %2
  %12 = load ptr, ptr %7, align 8
  %13 = icmp ne ptr %12, null
  br i1 %13, label %14, label %28

14:                                               ; preds = %11
  %15 = load i32, ptr %6, align 4
  %16 = load i32, ptr %5, align 4
  %17 = icmp eq i32 %15, %16
  br i1 %17, label %18, label %22

18:                                               ; preds = %14
  %19 = load ptr, ptr %7, align 8
  %20 = getelementptr inbounds %struct.lib_info, ptr %19, i32 0, i32 0
  %21 = getelementptr inbounds [4352 x i8], ptr %20, i64 0, i64 0
  store ptr %21, ptr %3, align 8
  br label %29

22:                                               ; preds = %14
  %23 = load i32, ptr %6, align 4
  %24 = add nsw i32 %23, 1
  store i32 %24, ptr %6, align 4
  %25 = load ptr, ptr %7, align 8
  %26 = getelementptr inbounds %struct.lib_info, ptr %25, i32 0, i32 8
  %27 = load ptr, ptr %26, align 8
  store ptr %27, ptr %7, align 8
  br label %11, !llvm.loop !15

28:                                               ; preds = %11
  store ptr null, ptr %3, align 8
  br label %29

29:                                               ; preds = %28, %18
  %30 = load ptr, ptr %3, align 8
  ret ptr %30
}