; Function Attrs: nofree norecurse nosync nounwind memory(read, inaccessiblemem: none) uwtable
define hidden ptr @get_lib_name(ptr nocapture noundef readonly %0, i32 noundef %1) local_unnamed_addr #15 {
  %3 = getelementptr inbounds i8, ptr %0, i64 16
  %.09 = load ptr, ptr %3, align 8
  %.not10 = icmp eq ptr %.09, null
  %4 = icmp eq i32 %1, 0
  %or.cond11 = or i1 %.not10, %4
  br i1 %or.cond11, label %._crit_edge, label %.lr.ph

.lr.ph:                                           ; preds = %2, %.lr.ph
  %.013 = phi ptr [ %.0, %.lr.ph ], [ %.09, %2 ]
  %.0712 = phi i32 [ %5, %.lr.ph ], [ 0, %2 ]
  %5 = add nuw nsw i32 %.0712, 1
  %6 = getelementptr inbounds i8, ptr %.013, i64 4432
  %.0 = load ptr, ptr %6, align 8
  %.not = icmp eq ptr %.0, null
  %7 = icmp eq i32 %5, %1
  %or.cond = select i1 %.not, i1 true, i1 %7
  br i1 %or.cond, label %._crit_edge, label %.lr.ph, !llvm.loop !15

._crit_edge:                                      ; preds = %.lr.ph, %2
  %.0.lcssa = phi ptr [ %.09, %2 ], [ %.0, %.lr.ph ]
  ret ptr %.0.lcssa
}